(dp0
Vengine
p1
S'pdflatex'
p2
sVpackages
p3
c__builtin__
set
p4
((lp5
Vpreamble
p6
atp7
Rp8
sVfiles_with_guttermarks
p9
g4
((lp10
V/Users/Andreas/Desktop/Master-/Thesis/./master.bbl
p11
aV/Users/Andreas/Desktop/Master-/Thesis/Chapters/FSI/FSI.tex
p12
aV/Users/Andreas/Desktop/Master-/Thesis/./Chapters/Continuum.tex
p13
aS'/Users/Andreas/Desktop/Master-/Thesis/master.txt'
p14
aV/Users/Andreas/Desktop/Master-/Thesis/Chapters/Continuum/Continuum.tex
p15
aV/Users/Andreas/Desktop/Master-/Thesis/./master.tex
p16
aV/Users/Andreas/Desktop/Master-/Thesis/master.tex
p17
aV/Users/Andreas/Desktop/Master-/Thesis/./Chapters/Continuum/Continuum.tex
p18
aV/Users/Andreas/Desktop/Master-/Thesis/./master.aux
p19
aV/Users/Andreas/Desktop/Master-/Thesis/./master.txt
p20
aV/Users/Andreas/Desktop/Master-/Thesis/./Chapters/FSI/FSI.tex
p21
aS'master.txt'
p22
atp23
Rp24
sVsynctex
p25
I01
s.